target datalayout = "e-m:e-p270:32:32-p271:32:32-p272:64:64-i64:64-i128:128-f80:128-n8:16:32:64-S128"
target triple = "x86_64-pc-linux-gnu"

%struct.TT_FaceRec_ = type { %struct.FT_FaceRec_, %struct.TTC_HeaderRec_, i64, i16, ptr, %struct.TT_Header_, %struct.TT_HoriHeader_, %struct.TT_MaxProfile_, i8, %struct.TT_VertHeader_, i16, %struct.TT_NameTableRec_, %struct.TT_OS2_, %struct.TT_Postscript_, ptr, i64, ptr, ptr, ptr, ptr, ptr, ptr, ptr, ptr, ptr, ptr, ptr, ptr, %struct.TT_Gasp_, %struct.TT_PCLT_, i64, ptr, %struct.TT_Post_NamesRec_, %struct.FT_Palette_Data_, i16, ptr, i8, %struct.FT_Color_, i64, ptr, i64, ptr, i64, ptr, ptr, %struct.FT_Generic_, ptr, i64, i64, i8, i8, ptr, i32, ptr, i32, i32, ptr, i64, i64, i64, ptr, ptr, i64, i32, i64, ptr, ptr, i64, i32, i32, ptr, ptr, i64, i32, i32, i32, %struct.TT_BDFRec_, i64, i64, i64, i64, ptr, ptr, ptr }
%struct.FT_FaceRec_ = type { i64, i64, i64, i64, i64, ptr, ptr, i32, ptr, i32, ptr, %struct.FT_Generic_, %struct.FT_BBox_, i16, i16, i16, i16, i16, i16, i16, i16, ptr, ptr, ptr, ptr, ptr, ptr, %struct.FT_ListRec_, %struct.FT_Generic_, ptr, ptr }
%struct.FT_BBox_ = type { i64, i64, i64, i64 }
%struct.FT_ListRec_ = type { ptr, ptr }
%struct.TTC_HeaderRec_ = type { i64, i64, i64, ptr }
%struct.TT_Header_ = type { i64, i64, i64, i64, i16, i16, [2 x i64], [2 x i64], i16, i16, i16, i16, i16, i16, i16, i16, i16 }
%struct.TT_HoriHeader_ = type { i64, i16, i16, i16, i16, i16, i16, i16, i16, i16, i16, [4 x i16], i16, i16, ptr, ptr }
%struct.TT_MaxProfile_ = type { i64, i16, i16, i16, i16, i16, i16, i16, i16, i16, i16, i16, i16, i16, i16 }
%struct.TT_VertHeader_ = type { i64, i16, i16, i16, i16, i16, i16, i16, i16, i16, i16, [4 x i16], i16, i16, ptr, ptr }
%struct.TT_NameTableRec_ = type { i16, i32, i32, ptr, i32, ptr, ptr }
%struct.TT_OS2_ = type { i16, i16, i16, i16, i16, i16, i16, i16, i16, i16, i16, i16, i16, i16, i16, i16, [10 x i8], i64, i64, i64, i64, [4 x i8], i16, i16, i16, i16, i16, i16, i16, i16, i64, i64, i16, i16, i16, i16, i16, i16, i16 }
%struct.TT_Postscript_ = type { i64, i64, i16, i16, i64, i64, i64, i64, i64 }
%struct.TT_Gasp_ = type { i16, i16, ptr }
%struct.TT_PCLT_ = type { i64, i64, i16, i16, i16, i16, i16, i16, [16 x i8], [8 x i8], [6 x i8], i8, i8, i8, i8 }
%struct.TT_Post_NamesRec_ = type { i8, i16, i16, ptr, ptr }
%struct.FT_Palette_Data_ = type { i16, ptr, ptr, i16, ptr }
%struct.FT_Color_ = type { i8, i8, i8, i8 }
%struct.FT_Generic_ = type { ptr, ptr }
%struct.TT_BDFRec_ = type { ptr, ptr, ptr, i64, i32, i8 }
%struct.CFF_FontRec_ = type { ptr, ptr, ptr, i64, i32, i32, i8, i8, i8, i32, i8, %struct.CFF_IndexRec_, %struct.CFF_IndexRec_, %struct.CFF_IndexRec_, %struct.CFF_EncodingRec_, %struct.CFF_CharsetRec_, %struct.CFF_IndexRec_, %struct.CFF_IndexRec_, %struct.CFF_IndexRec_, %struct.CFF_IndexRec_, ptr, ptr, i32, ptr, ptr, i64, %struct.CFF_SubFontRec_, i32, [256 x ptr], %struct.CFF_FDSelectRec_, ptr, ptr, ptr, ptr, ptr, ptr, %struct.FT_Generic_, %struct.CFF_VStoreRec_, ptr }
%struct.CFF_EncodingRec_ = type { i32, i64, i32, [256 x i16], [256 x i16] }
%struct.CFF_CharsetRec_ = type { i32, i64, ptr, ptr, i32, i32 }
%struct.CFF_IndexRec_ = type { ptr, i64, i32, i32, i8, i64, i64, ptr, ptr }
%struct.CFF_SubFontRec_ = type { %struct.CFF_FontRecDictRec_, %struct.CFF_PrivateRec_, %struct.CFF_BlendRec_, i32, ptr, ptr, ptr, i32, i32, %struct.CFF_IndexRec_, ptr, i32 }
%struct.CFF_FontRecDictRec_ = type { i32, i32, i32, i32, i32, i32, i8, i64, i64, i64, i32, i32, %struct.FT_Matrix_, i8, i64, %struct.FT_Vector_, i64, %struct.FT_BBox_, i64, i64, i64, i64, i64, i64, i64, i32, i32, i32, i64, i64, i64, i64, i64, i64, i64, i64, i32, i16, i16, i64, i32 }
%struct.FT_Matrix_ = type { i64, i64, i64, i64 }
%struct.FT_Vector_ = type { i64, i64 }
%struct.CFF_PrivateRec_ = type { i8, i8, i8, i8, [14 x i64], [10 x i64], [14 x i64], [10 x i64], i64, i64, i64, i64, i64, i8, i8, [13 x i64], [13 x i64], i8, i64, i32, i32, i64, i64, i64, i64, i64, i32, ptr }
%struct.CFF_BlendRec_ = type { i8, i8, ptr, i32, i32, ptr, i32, ptr }
%struct.CFF_FDSelectRec_ = type { i8, i32, ptr, i32, i32, i32, i8 }
%struct.CFF_VStoreRec_ = type { i32, ptr, i16, i32, ptr }

; Function Attrs: nounwind uwtable
define internal i32 @cff_get_cid_from_glyph_index(ptr noundef %0, i32 noundef %1, ptr noundef %2) #0 {
  %4 = alloca ptr, align 8
  %5 = alloca i32, align 4
  %6 = alloca ptr, align 8
  %7 = alloca i32, align 4
  %8 = alloca ptr, align 8
  %9 = alloca ptr, align 8
  %10 = alloca i32, align 4
  %11 = alloca ptr, align 8
  store ptr %0, ptr %4, align 8
  store i32 %1, ptr %5, align 4
  store ptr %2, ptr %6, align 8
  store i32 0, ptr %7, align 4
  %12 = load ptr, ptr %4, align 8
  store ptr %12, ptr %8, align 8
  %13 = load ptr, ptr %8, align 8
  %14 = getelementptr inbounds %struct.TT_FaceRec_, ptr %13, i32 0, i32 45
  %15 = getelementptr inbounds %struct.FT_Generic_, ptr %14, i32 0, i32 0
  %16 = load ptr, ptr %15, align 8
  store ptr %16, ptr %9, align 8
  %17 = load ptr, ptr %9, align 8
  %18 = icmp ne ptr %17, null
  br i1 %18, label %19, label %51

19:                                               ; preds = %3
  %20 = load ptr, ptr %9, align 8
  %21 = getelementptr inbounds %struct.CFF_FontRec_, ptr %20, i32 0, i32 26
  %22 = getelementptr inbounds %struct.CFF_SubFontRec_, ptr %21, i32 0, i32 0
  store ptr %22, ptr %11, align 8
  %23 = load ptr, ptr %11, align 8
  %24 = getelementptr inbounds %struct.CFF_FontRecDictRec_, ptr %23, i32 0, i32 26
  %25 = load i32, ptr %24, align 4
  %26 = icmp eq i32 %25, 65535
  br i1 %26, label %27, label %28

27:                                               ; preds = %19
  store i32 6, ptr %7, align 4
  br label %52

28:                                               ; preds = %19
  %29 = load i32, ptr %5, align 4
  %30 = load ptr, ptr %9, align 8
  %31 = getelementptr inbounds %struct.CFF_FontRec_, ptr %30, i32 0, i32 5
  %32 = load i32, ptr %31, align 4
  %33 = icmp uge i32 %29, %32
  br i1 %33, label %34, label %35

34:                                               ; preds = %28
  store i32 6, ptr %7, align 4
  br label %52

35:                                               ; preds = %28
  %36 = load ptr, ptr %9, align 8
  %37 = getelementptr inbounds %struct.CFF_FontRec_, ptr %36, i32 0, i32 15
  %38 = getelementptr inbounds %struct.CFF_CharsetRec_, ptr %37, i32 0, i32 2
  %39 = load ptr, ptr %38, align 8
  %40 = load i32, ptr %5, align 4
  %41 = zext i32 %40 to i64
  %42 = getelementptr inbounds i16, ptr %39, i64 %41
  %43 = load i16, ptr %42, align 2
  %44 = zext i16 %43 to i32
  store i32 %44, ptr %10, align 4
  %45 = load ptr, ptr %6, align 8
  %46 = icmp ne ptr %45, null
  br i1 %46, label %47, label %50

47:                                               ; preds = %35
  %48 = load i32, ptr %10, align 4
  %49 = load ptr, ptr %6, align 8
  store i32 %48, ptr %49, align 4
  br label %50

50:                                               ; preds = %47, %35
  br label %51

51:                                               ; preds = %50, %3
  br label %52

52:                                               ; preds = %51, %34, %27
  %53 = load i32, ptr %7, align 4
  ret i32 %53
}