; Function Attrs: mustprogress nofree norecurse nosync nounwind willreturn memory(read, argmem: readwrite, inaccessiblemem: none) uwtable
define internal range(i32 0, 7) i32 @cff_get_cid_from_glyph_index(ptr nocapture noundef readonly %0, i32 noundef %1, ptr noundef writeonly %2) #0 {
  %4 = getelementptr inbounds i8, ptr %0, i64 1168
  %5 = load ptr, ptr %4, align 8
  %.not = icmp eq ptr %5, null
  br i1 %.not, label %21, label %6

6:                                                ; preds = %3
  %7 = getelementptr inbounds i8, ptr %5, i64 1868
  %8 = load i32, ptr %7, align 4
  %9 = icmp eq i32 %8, 65535
  br i1 %9, label %21, label %10

10:                                               ; preds = %6
  %11 = getelementptr inbounds i8, ptr %5, i64 36
  %12 = load i32, ptr %11, align 4
  %.not15 = icmp ugt i32 %12, %1
  br i1 %.not15, label %13, label %21

13:                                               ; preds = %10
  %.not16 = icmp eq ptr %2, null
  br i1 %.not16, label %21, label %14

14:                                               ; preds = %13
  %15 = getelementptr inbounds i8, ptr %5, i64 1312
  %16 = load ptr, ptr %15, align 8
  %17 = zext i32 %1 to i64
  %18 = getelementptr inbounds i16, ptr %16, i64 %17
  %19 = load i16, ptr %18, align 2
  %20 = zext i16 %19 to i32
  store i32 %20, ptr %2, align 4
  br label %21

21:                                               ; preds = %10, %6, %3, %14, %13
  %.0 = phi i32 [ 0, %14 ], [ 0, %13 ], [ 0, %3 ], [ 6, %6 ], [ 6, %10 ]
  ret i32 %.0
}